target datalayout = "e-m:e-p270:32:32-p271:32:32-p272:64:64-i64:64-i128:128-f80:128-n8:16:32:64-S128"
target triple = "x86_64-pc-linux-gnu"

%"class.pxrInternal_v0_24__pxrReserved__::Vt_ArrayBase" = type { %"struct.pxrInternal_v0_24__pxrReserved__::Vt_ShapeData", ptr }
%"struct.pxrInternal_v0_24__pxrReserved__::Vt_ShapeData" = type { i64, [3 x i32] }
%"class.pxrInternal_v0_24__pxrReserved__::VtArray.3" = type { %"class.pxrInternal_v0_24__pxrReserved__::Vt_ArrayBase", ptr }
%"class.pxrInternal_v0_24__pxrReserved__::GfVec3f" = type { [3 x float] }
%"class.std::initializer_list.4" = type { ptr, i64 }

@__dso_handle = external hidden global i8
@_ZZN32pxrInternal_v0_24__pxrReserved__33UsdImagingGetUnitSphereMeshPointsEvE6points = internal global %"class.pxrInternal_v0_24__pxrReserved__::VtArray.3" zeroinitializer, align 8
@_ZGVZN32pxrInternal_v0_24__pxrReserved__33UsdImagingGetUnitSphereMeshPointsEvE6points = internal global i64 0, align 8

; Function Attrs: mustprogress uwtable
define noundef nonnull align 8 dereferenceable(40) ptr @_ZN32pxrInternal_v0_24__pxrReserved__33UsdImagingGetUnitSphereMeshPointsEv() #0 personality ptr @__gxx_personality_v0 {
  %1 = alloca %"class.std::initializer_list.4", align 8
  %2 = alloca [92 x %"class.pxrInternal_v0_24__pxrReserved__::GfVec3f"], align 4
  %3 = alloca ptr, align 8
  %4 = alloca i32, align 4
  %5 = load atomic i8, ptr @_ZGVZN32pxrInternal_v0_24__pxrReserved__33UsdImagingGetUnitSphereMeshPointsEvE6points acquire, align 8
  %6 = icmp eq i8 %5, 0
  br i1 %6, label %7, label %19, !prof !4

7:                                                ; preds = %0
  %8 = call i32 @__cxa_guard_acquire(ptr @_ZGVZN32pxrInternal_v0_24__pxrReserved__33UsdImagingGetUnitSphereMeshPointsEvE6points) #1
  %9 = icmp ne i32 %8, 0
  br i1 %9, label %10, label %19

10:                                               ; preds = %7
  call void @llvm.memcpy.p0.p0.i64(ptr align 4 %2, ptr align 4 @constinit.2, i64 1104, i1 false)
  %11 = getelementptr inbounds nuw %"class.std::initializer_list.4", ptr %1, i32 0, i32 0
  store ptr %2, ptr %11, align 8
  %12 = getelementptr inbounds nuw %"class.std::initializer_list.4", ptr %1, i32 0, i32 1
  store i64 92, ptr %12, align 8
  %13 = getelementptr inbounds nuw { ptr, i64 }, ptr %1, i32 0, i32 0
  %14 = load ptr, ptr %13, align 8
  %15 = getelementptr inbounds nuw { ptr, i64 }, ptr %1, i32 0, i32 1
  %16 = load i64, ptr %15, align 8
  invoke void @_ZN32pxrInternal_v0_24__pxrReserved__7VtArrayINS_7GfVec3fEEC1ESt16initializer_listIS1_E(ptr noundef nonnull align 8 dereferenceable(40) @_ZZN32pxrInternal_v0_24__pxrReserved__33UsdImagingGetUnitSphereMeshPointsEvE6points, ptr %14, i64 %16)
          to label %17 unwind label %20

17:                                               ; preds = %10
  %18 = call i32 @__cxa_atexit(ptr @_ZN32pxrInternal_v0_24__pxrReserved__7VtArrayINS_7GfVec3fEED1Ev, ptr @_ZZN32pxrInternal_v0_24__pxrReserved__33UsdImagingGetUnitSphereMeshPointsEvE6points, ptr @__dso_handle) #1
  call void @__cxa_guard_release(ptr @_ZGVZN32pxrInternal_v0_24__pxrReserved__33UsdImagingGetUnitSphereMeshPointsEvE6points) #1
  br label %19

19:                                               ; preds = %17, %7, %0
  ret ptr @_ZZN32pxrInternal_v0_24__pxrReserved__33UsdImagingGetUnitSphereMeshPointsEvE6points

20:                                               ; preds = %10
  %21 = landingpad { ptr, i32 }
          cleanup
  %22 = extractvalue { ptr, i32 } %21, 0
  store ptr %22, ptr %3, align 8
  %23 = extractvalue { ptr, i32 } %21, 1
  store i32 %23, ptr %4, align 4
  call void @__cxa_guard_abort(ptr @_ZGVZN32pxrInternal_v0_24__pxrReserved__33UsdImagingGetUnitSphereMeshPointsEvE6points) #1
  br label %24

24:                                               ; preds = %20
  %25 = load ptr, ptr %3, align 8
  %26 = load i32, ptr %4, align 4
  %27 = insertvalue { ptr, i32 } poison, ptr %25, 0
  %28 = insertvalue { ptr, i32 } %27, i32 %26, 1
  resume { ptr, i32 } %28
}